; Function Attrs: mustprogress uwtable
define internal void @_ZNK2cv4impl12_GLOBAL__N_120CvtColorLoop_InvokerINS_3hal12cpu_baseline12_GLOBAL__N_110RGBA2mRGBAIhEEEclERKNS_5RangeE(ptr nocapture noundef nonnull readonly align 8 dereferenceable(56) %0, ptr nocapture noundef nonnull readonly align 4 dereferenceable(8) %1) unnamed_addr #0 align 2 personality ptr @__gxx_personality_v0 {
  %3 = alloca %"class.cv::utils::trace::details::Region", align 8
  call void @_ZN2cv5utils5trace7details6RegionC1ERKNS3_21LocationStaticStorageE(ptr noundef nonnull align 8 dereferenceable(12) %3, ptr noundef nonnull align 8 dereferenceable(32) @_ZZNK2cv4impl12_GLOBAL__N_120CvtColorLoop_InvokerINS_3hal12cpu_baseline12_GLOBAL__N_110RGBA2mRGBAIhEEEclERKNS_5RangeEE25__cv_trace_location_fn146)
  %4 = load i32, ptr %1, align 4
  %5 = getelementptr inbounds i8, ptr %0, i64 16
  %6 = getelementptr inbounds i8, ptr %0, i64 32
  %7 = getelementptr inbounds i8, ptr %1, i64 4
  %8 = load i32, ptr %7, align 4
  %9 = icmp slt i32 %4, %8
  br i1 %9, label %.lr.ph, label %._crit_edge

.lr.ph:                                           ; preds = %2
  %10 = getelementptr inbounds i8, ptr %0, i64 40
  %11 = load i32, ptr %10, align 8
  %12 = icmp sgt i32 %11, 0
  br i1 %12, label %.lr.ph.split.preheader, label %._crit_edge

.lr.ph.split.preheader:                           ; preds = %.lr.ph
  %13 = getelementptr inbounds i8, ptr %0, i64 24
  %14 = load ptr, ptr %13, align 8
  %15 = load i64, ptr %6, align 8
  %16 = sext i32 %4 to i64
  %17 = mul i64 %15, %16
  %18 = getelementptr inbounds i8, ptr %14, i64 %17
  %19 = getelementptr inbounds i8, ptr %0, i64 8
  %20 = load ptr, ptr %19, align 8
  %21 = load i64, ptr %5, align 8
  %22 = mul i64 %21, %16
  %23 = getelementptr inbounds i8, ptr %20, i64 %22
  br label %.lr.ph.split

.lr.ph.split:                                     ; preds = %.lr.ph.split.preheader, %_ZNK2cv3hal12cpu_baseline12_GLOBAL__N_110RGBA2mRGBAIhEclEPKhPhi.exit
  %24 = phi i32 [ %58, %_ZNK2cv3hal12cpu_baseline12_GLOBAL__N_110RGBA2mRGBAIhEclEPKhPhi.exit ], [ %8, %.lr.ph.split.preheader ]
  %25 = phi i64 [ %59, %_ZNK2cv3hal12cpu_baseline12_GLOBAL__N_110RGBA2mRGBAIhEclEPKhPhi.exit ], [ %15, %.lr.ph.split.preheader ]
  %26 = phi i64 [ %60, %_ZNK2cv3hal12cpu_baseline12_GLOBAL__N_110RGBA2mRGBAIhEclEPKhPhi.exit ], [ %21, %.lr.ph.split.preheader ]
  %.014 = phi i32 [ %61, %_ZNK2cv3hal12cpu_baseline12_GLOBAL__N_110RGBA2mRGBAIhEclEPKhPhi.exit ], [ %4, %.lr.ph.split.preheader ]
  %.01013 = phi ptr [ %63, %_ZNK2cv3hal12cpu_baseline12_GLOBAL__N_110RGBA2mRGBAIhEclEPKhPhi.exit ], [ %18, %.lr.ph.split.preheader ]
  %.01112 = phi ptr [ %62, %_ZNK2cv3hal12cpu_baseline12_GLOBAL__N_110RGBA2mRGBAIhEclEPKhPhi.exit ], [ %23, %.lr.ph.split.preheader ]
  %27 = load i32, ptr %10, align 8
  %28 = icmp sgt i32 %27, 0
  br i1 %28, label %.lr.ph.i, label %_ZNK2cv3hal12cpu_baseline12_GLOBAL__N_110RGBA2mRGBAIhEclEPKhPhi.exit

.lr.ph.i:                                         ; preds = %.lr.ph.split, %.lr.ph.i
  %.07.i = phi ptr [ %56, %.lr.ph.i ], [ %.01112, %.lr.ph.split ]
  %.0196.i = phi ptr [ %57, %.lr.ph.i ], [ %.01013, %.lr.ph.split ]
  %.0205.i = phi i32 [ %55, %.lr.ph.i ], [ 0, %.lr.ph.split ]
  %29 = load i8, ptr %.07.i, align 1
  %30 = getelementptr inbounds i8, ptr %.07.i, i64 1
  %31 = load i8, ptr %30, align 1
  %32 = getelementptr inbounds i8, ptr %.07.i, i64 2
  %33 = load i8, ptr %32, align 1
  %34 = getelementptr inbounds i8, ptr %.07.i, i64 3
  %35 = load i8, ptr %34, align 1
  %36 = zext i8 %29 to i32
  %37 = zext i8 %35 to i32
  %38 = mul nuw nsw i32 %37, %36
  %39 = trunc nuw i32 %38 to i16
  %.lhs.trunc.i = add nuw i16 %39, 128
  %40 = udiv i16 %.lhs.trunc.i, 255
  %41 = trunc nuw i16 %40 to i8
  store i8 %41, ptr %.0196.i, align 1
  %42 = zext i8 %31 to i32
  %43 = mul nuw nsw i32 %37, %42
  %44 = trunc nuw i32 %43 to i16
  %.lhs.trunc1.i = add nuw i16 %44, 128
  %45 = udiv i16 %.lhs.trunc1.i, 255
  %46 = trunc nuw i16 %45 to i8
  %47 = getelementptr inbounds i8, ptr %.0196.i, i64 1
  store i8 %46, ptr %47, align 1
  %48 = zext i8 %33 to i32
  %49 = mul nuw nsw i32 %37, %48
  %50 = trunc nuw i32 %49 to i16
  %.lhs.trunc3.i = add nuw i16 %50, 128
  %51 = udiv i16 %.lhs.trunc3.i, 255
  %52 = trunc nuw i16 %51 to i8
  %53 = getelementptr inbounds i8, ptr %.0196.i, i64 2
  store i8 %52, ptr %53, align 1
  %54 = getelementptr inbounds i8, ptr %.0196.i, i64 3
  store i8 %35, ptr %54, align 1
  %55 = add nuw nsw i32 %.0205.i, 1
  %56 = getelementptr inbounds i8, ptr %.07.i, i64 4
  %57 = getelementptr inbounds i8, ptr %.0196.i, i64 4
  %exitcond.not.i = icmp eq i32 %55, %27
  br i1 %exitcond.not.i, label %_ZNK2cv3hal12cpu_baseline12_GLOBAL__N_110RGBA2mRGBAIhEclEPKhPhi.exit.loopexit, label %.lr.ph.i, !llvm.loop !82

_ZNK2cv3hal12cpu_baseline12_GLOBAL__N_110RGBA2mRGBAIhEclEPKhPhi.exit.loopexit: ; preds = %.lr.ph.i
  %.pre = load i64, ptr %5, align 8
  %.pre16 = load i64, ptr %6, align 8
  %.pre17 = load i32, ptr %7, align 4
  br label %_ZNK2cv3hal12cpu_baseline12_GLOBAL__N_110RGBA2mRGBAIhEclEPKhPhi.exit

_ZNK2cv3hal12cpu_baseline12_GLOBAL__N_110RGBA2mRGBAIhEclEPKhPhi.exit: ; preds = %_ZNK2cv3hal12cpu_baseline12_GLOBAL__N_110RGBA2mRGBAIhEclEPKhPhi.exit.loopexit, %.lr.ph.split
  %58 = phi i32 [ %.pre17, %_ZNK2cv3hal12cpu_baseline12_GLOBAL__N_110RGBA2mRGBAIhEclEPKhPhi.exit.loopexit ], [ %24, %.lr.ph.split ]
  %59 = phi i64 [ %.pre16, %_ZNK2cv3hal12cpu_baseline12_GLOBAL__N_110RGBA2mRGBAIhEclEPKhPhi.exit.loopexit ], [ %25, %.lr.ph.split ]
  %60 = phi i64 [ %.pre, %_ZNK2cv3hal12cpu_baseline12_GLOBAL__N_110RGBA2mRGBAIhEclEPKhPhi.exit.loopexit ], [ %26, %.lr.ph.split ]
  %61 = add nsw i32 %.014, 1
  %62 = getelementptr inbounds i8, ptr %.01112, i64 %60
  %63 = getelementptr inbounds i8, ptr %.01013, i64 %59
  %64 = icmp slt i32 %61, %58
  br i1 %64, label %.lr.ph.split, label %._crit_edge, !llvm.loop !83

._crit_edge:                                      ; preds = %_ZNK2cv3hal12cpu_baseline12_GLOBAL__N_110RGBA2mRGBAIhEclEPKhPhi.exit, %.lr.ph, %2
  %65 = getelementptr inbounds i8, ptr %3, i64 8
  %66 = load i32, ptr %65, align 8
  %.not.i = icmp eq i32 %66, 0
  br i1 %.not.i, label %_ZN2cv5utils5trace7details6RegionD2Ev.exit, label %67

67:                                               ; preds = %._crit_edge
  invoke void @_ZN2cv5utils5trace7details6Region7destroyEv(ptr noundef nonnull align 8 dereferenceable(12) %3)
          to label %_ZN2cv5utils5trace7details6RegionD2Ev.exit unwind label %68

68:                                               ; preds = %67
  %69 = landingpad { ptr, i32 }
          catch ptr null
  %70 = extractvalue { ptr, i32 } %69, 0
  call void @__clang_call_terminate(ptr %70) #13
  unreachable

_ZN2cv5utils5trace7details6RegionD2Ev.exit:       ; preds = %._crit_edge, %67
  ret void
}